; Function Attrs: mustprogress nofree norecurse nosync nounwind willreturn memory(read, inaccessiblemem: none) uwtable
define dso_local range(i64 0, 2) i64 @macaddr_ne(ptr noundef readonly captures(none) %0) local_unnamed_addr #4 {
  %2 = getelementptr inbounds nuw i8, ptr %0, i64 32
  %3 = load i64, ptr %2, align 8
  %4 = inttoptr i64 %3 to ptr
  %5 = getelementptr inbounds nuw i8, ptr %0, i64 48
  %6 = load i64, ptr %5, align 8
  %7 = inttoptr i64 %6 to ptr
  %8 = load i8, ptr %4, align 1
  %9 = zext i8 %8 to i64
  %10 = shl nuw nsw i64 %9, 16
  %11 = getelementptr inbounds nuw i8, ptr %4, i64 1
  %12 = load i8, ptr %11, align 1
  %13 = zext i8 %12 to i64
  %14 = shl nuw nsw i64 %13, 8
  %15 = or disjoint i64 %14, %10
  %16 = getelementptr inbounds nuw i8, ptr %4, i64 2
  %17 = load i8, ptr %16, align 1
  %18 = zext i8 %17 to i64
  %19 = or disjoint i64 %15, %18
  %20 = load i8, ptr %7, align 1
  %21 = zext i8 %20 to i64
  %22 = shl nuw nsw i64 %21, 16
  %23 = getelementptr inbounds nuw i8, ptr %7, i64 1
  %24 = load i8, ptr %23, align 1
  %25 = zext i8 %24 to i64
  %26 = shl nuw nsw i64 %25, 8
  %27 = or disjoint i64 %26, %22
  %28 = getelementptr inbounds nuw i8, ptr %7, i64 2
  %29 = load i8, ptr %28, align 1
  %30 = zext i8 %29 to i64
  %31 = or disjoint i64 %27, %30
  %or.cond.not = icmp eq i64 %19, %31
  br i1 %or.cond.not, label %32, label %macaddr_cmp_internal.exit

32:                                               ; preds = %1
  %33 = getelementptr inbounds nuw i8, ptr %4, i64 3
  %34 = load i8, ptr %33, align 1
  %35 = zext i8 %34 to i64
  %36 = shl nuw nsw i64 %35, 16
  %37 = getelementptr inbounds nuw i8, ptr %4, i64 4
  %38 = load i8, ptr %37, align 1
  %39 = zext i8 %38 to i64
  %40 = shl nuw nsw i64 %39, 8
  %41 = or disjoint i64 %40, %36
  %42 = getelementptr inbounds nuw i8, ptr %4, i64 5
  %43 = load i8, ptr %42, align 1
  %44 = zext i8 %43 to i64
  %45 = or disjoint i64 %41, %44
  %46 = getelementptr inbounds nuw i8, ptr %7, i64 3
  %47 = load i8, ptr %46, align 1
  %48 = zext i8 %47 to i64
  %49 = shl nuw nsw i64 %48, 16
  %50 = getelementptr inbounds nuw i8, ptr %7, i64 4
  %51 = load i8, ptr %50, align 1
  %52 = zext i8 %51 to i64
  %53 = shl nuw nsw i64 %52, 8
  %54 = or disjoint i64 %53, %49
  %55 = getelementptr inbounds nuw i8, ptr %7, i64 5
  %56 = load i8, ptr %55, align 1
  %57 = zext i8 %56 to i64
  %58 = or disjoint i64 %54, %57
  %59 = icmp samesign ult i64 %45, %58
  br i1 %59, label %macaddr_cmp_internal.exit, label %60

60:                                               ; preds = %32
  %61 = icmp samesign ugt i64 %45, %58
  %62 = zext i1 %61 to i64
  br label %macaddr_cmp_internal.exit

macaddr_cmp_internal.exit:                        ; preds = %1, %32, %60
  %.0.i = phi i64 [ 1, %1 ], [ 1, %32 ], [ %62, %60 ]
  ret i64 %.0.i
}